target datalayout = "e-m:e-p270:32:32-p271:32:32-p272:64:64-i64:64-i128:128-f80:128-n8:16:32:64-S128"
target triple = "x86_64-pc-linux-gnu"

%"class.marisa::grimoire::io::Writer" = type <{ ptr, i32, [4 x i8], ptr, i8, [7 x i8] }>
%"class.marisa::Exception" = type { %"class.std::exception", ptr, i32, i32, ptr }
%"class.std::exception" = type { ptr }

@.str = private unnamed_addr constant [142 x i8] c"generated/home/dtcxzyw/WorkSpace/Projects/compilers/llvm-opt-benchmark/bench/opencc/OpenCC/deps/marisa-0.2.6/lib/marisa/grimoire/io/writer.cc\00", align 1
@_ZTIN6marisa9ExceptionE = linkonce_odr constant { ptr, ptr, ptr } { ptr getelementptr inbounds (ptr, ptr @_ZTVN10__cxxabiv120__si_class_type_infoE, i64 2), ptr @_ZTSN6marisa9ExceptionE, ptr @_ZTISt9exception }, comdat, align 8
@.str.2 = private unnamed_addr constant [178 x i8] c"generated/home/dtcxzyw/WorkSpace/Projects/compilers/llvm-opt-benchmark/bench/opencc/OpenCC/deps/marisa-0.2.6/lib/marisa/grimoire/io/writer.cc:35: MARISA_NULL_ERROR: file == NULL\00", align 1
@_ZTVN6marisa9ExceptionE = linkonce_odr unnamed_addr constant { [5 x ptr] } { [5 x ptr] [ptr null, ptr @_ZTIN6marisa9ExceptionE, ptr @_ZNSt9exceptionD2Ev, ptr @_ZN6marisa9ExceptionD0Ev, ptr @_ZNK6marisa9Exception4whatEv] }, comdat, align 8
@_ZTVSt9exception = available_externally unnamed_addr constant { [5 x ptr] } { [5 x ptr] [ptr null, ptr @_ZTISt9exception, ptr @_ZNSt9exceptionD1Ev, ptr @_ZNSt9exceptionD0Ev, ptr @_ZNKSt9exception4whatEv] }, align 8
@_ZN6marisa8grimoire2io6WriterC1Ev = unnamed_addr alias void (ptr), ptr @_ZN6marisa8grimoire2io6WriterC2Ev
@_ZN6marisa8grimoire2io6WriterD1Ev = unnamed_addr alias void (ptr), ptr @_ZN6marisa8grimoire2io6WriterD2Ev

; Function Attrs: inlinehint mustprogress nounwind uwtable
define linkonce_odr void @_ZSt4swapIbENSt9enable_ifIXsr6__and_ISt6__not_ISt15__is_tuple_likeIT_EESt21is_move_constructibleIS3_ESt18is_move_assignableIS3_EEE5valueEvE4typeERS3_SC_(ptr noundef nonnull align 1 dereferenceable(1) %0, ptr noundef nonnull align 1 dereferenceable(1) %1) #8 comdat {
  %3 = alloca ptr, align 8
  %4 = alloca ptr, align 8
  %5 = alloca i8, align 1
  store ptr %0, ptr %3, align 8, !tbaa !43
  store ptr %1, ptr %4, align 8, !tbaa !43
  call void @llvm.lifetime.start.p0(i64 1, ptr %5) #3
  %6 = load ptr, ptr %3, align 8, !tbaa !43
  %7 = load i8, ptr %6, align 1, !tbaa !45, !range !17, !noundef !18
  %8 = trunc i8 %7 to i1
  %9 = zext i1 %8 to i8
  store i8 %9, ptr %5, align 1, !tbaa !45
  %10 = load ptr, ptr %4, align 8, !tbaa !43
  %11 = load i8, ptr %10, align 1, !tbaa !45, !range !17, !noundef !18
  %12 = trunc i8 %11 to i1
  %13 = load ptr, ptr %3, align 8, !tbaa !43
  %14 = zext i1 %12 to i8
  store i8 %14, ptr %13, align 1, !tbaa !45
  %15 = load i8, ptr %5, align 1, !tbaa !45, !range !17, !noundef !18
  %16 = trunc i8 %15 to i1
  %17 = load ptr, ptr %4, align 8, !tbaa !43
  %18 = zext i1 %16 to i8
  store i8 %18, ptr %17, align 1, !tbaa !45
  call void @llvm.lifetime.end.p0(i64 1, ptr %5) #3
  ret void
}

; Function Attrs: inlinehint mustprogress nounwind uwtable
define linkonce_odr void @_ZSt4swapIPSoENSt9enable_ifIXsr6__and_ISt6__not_ISt15__is_tuple_likeIT_EESt21is_move_constructibleIS4_ESt18is_move_assignableIS4_EEE5valueEvE4typeERS4_SD_(ptr noundef nonnull align 8 dereferenceable(8) %0, ptr noundef nonnull align 8 dereferenceable(8) %1) #8 comdat {
  %3 = alloca ptr, align 8
  %4 = alloca ptr, align 8
  %5 = alloca ptr, align 8
  store ptr %0, ptr %3, align 8, !tbaa !41
  store ptr %1, ptr %4, align 8, !tbaa !41
  call void @llvm.lifetime.start.p0(i64 8, ptr %5) #3
  %6 = load ptr, ptr %3, align 8, !tbaa !41
  %7 = load ptr, ptr %6, align 8, !tbaa !35
  store ptr %7, ptr %5, align 8, !tbaa !35
  %8 = load ptr, ptr %4, align 8, !tbaa !41
  %9 = load ptr, ptr %8, align 8, !tbaa !35
  %10 = load ptr, ptr %3, align 8, !tbaa !41
  store ptr %9, ptr %10, align 8, !tbaa !35
  %11 = load ptr, ptr %5, align 8, !tbaa !35
  %12 = load ptr, ptr %4, align 8, !tbaa !41
  store ptr %11, ptr %12, align 8, !tbaa !35
  call void @llvm.lifetime.end.p0(i64 8, ptr %5) #3
  ret void
}

; Function Attrs: inlinehint mustprogress nounwind uwtable
define linkonce_odr void @_ZSt4swapIiENSt9enable_ifIXsr6__and_ISt6__not_ISt15__is_tuple_likeIT_EESt21is_move_constructibleIS3_ESt18is_move_assignableIS3_EEE5valueEvE4typeERS3_SC_(ptr noundef nonnull align 4 dereferenceable(4) %0, ptr noundef nonnull align 4 dereferenceable(4) %1) #8 comdat {
  %3 = alloca ptr, align 8
  %4 = alloca ptr, align 8
  %5 = alloca i32, align 4
  store ptr %0, ptr %3, align 8, !tbaa !39
  store ptr %1, ptr %4, align 8, !tbaa !39
  call void @llvm.lifetime.start.p0(i64 4, ptr %5) #3
  %6 = load ptr, ptr %3, align 8, !tbaa !39
  %7 = load i32, ptr %6, align 4, !tbaa !23
  store i32 %7, ptr %5, align 4, !tbaa !23
  %8 = load ptr, ptr %4, align 8, !tbaa !39
  %9 = load i32, ptr %8, align 4, !tbaa !23
  %10 = load ptr, ptr %3, align 8, !tbaa !39
  store i32 %9, ptr %10, align 4, !tbaa !23
  %11 = load i32, ptr %5, align 4, !tbaa !23
  %12 = load ptr, ptr %4, align 8, !tbaa !39
  store i32 %11, ptr %12, align 4, !tbaa !23
  call void @llvm.lifetime.end.p0(i64 4, ptr %5) #3
  ret void
}

; Function Attrs: inlinehint mustprogress nounwind uwtable
define linkonce_odr void @_ZSt4swapIP8_IO_FILEENSt9enable_ifIXsr6__and_ISt6__not_ISt15__is_tuple_likeIT_EESt21is_move_constructibleIS5_ESt18is_move_assignableIS5_EEE5valueEvE4typeERS5_SE_(ptr noundef nonnull align 8 dereferenceable(8) %0, ptr noundef nonnull align 8 dereferenceable(8) %1) #8 comdat {
  %3 = alloca ptr, align 8
  %4 = alloca ptr, align 8
  %5 = alloca ptr, align 8
  store ptr %0, ptr %3, align 8, !tbaa !36
  store ptr %1, ptr %4, align 8, !tbaa !36
  call void @llvm.lifetime.start.p0(i64 8, ptr %5) #3
  %6 = load ptr, ptr %3, align 8, !tbaa !36
  %7 = load ptr, ptr %6, align 8, !tbaa !34
  store ptr %7, ptr %5, align 8, !tbaa !34
  %8 = load ptr, ptr %4, align 8, !tbaa !36
  %9 = load ptr, ptr %8, align 8, !tbaa !34
  %10 = load ptr, ptr %3, align 8, !tbaa !36
  store ptr %9, ptr %10, align 8, !tbaa !34
  %11 = load ptr, ptr %5, align 8, !tbaa !34
  %12 = load ptr, ptr %4, align 8, !tbaa !36
  store ptr %11, ptr %12, align 8, !tbaa !34
  call void @llvm.lifetime.end.p0(i64 8, ptr %5) #3
  ret void
}

; Function Attrs: mustprogress nounwind uwtable
define linkonce_odr void @_ZNSt9exceptionC2Ev(ptr noundef nonnull align 8 dereferenceable(8) %0) unnamed_addr #4 comdat align 2 {
  %2 = alloca ptr, align 8
  store ptr %0, ptr %2, align 8, !tbaa !54
  %3 = load ptr, ptr %2, align 8
  store ptr getelementptr inbounds inrange(-16, 24) ({ [5 x ptr] }, ptr @_ZTVSt9exception, i32 0, i32 0, i32 2), ptr %3, align 8, !tbaa !26
  ret void
}

; Function Attrs: mustprogress nounwind uwtable
define void @_ZN6marisa8grimoire2io6Writer4swapERS2_(ptr noundef nonnull align 8 dereferenceable(25) %0, ptr noundef nonnull align 8 dereferenceable(25) %1) #4 align 2 {
  %3 = alloca ptr, align 8
  %4 = alloca ptr, align 8
  store ptr %0, ptr %3, align 8, !tbaa !3
  store ptr %1, ptr %4, align 8, !tbaa !3
  %5 = load ptr, ptr %3, align 8
  %6 = getelementptr inbounds nuw %"class.marisa::grimoire::io::Writer", ptr %5, i32 0, i32 0
  %7 = load ptr, ptr %4, align 8, !tbaa !3
  %8 = getelementptr inbounds nuw %"class.marisa::grimoire::io::Writer", ptr %7, i32 0, i32 0
  call void @_ZSt4swapIP8_IO_FILEENSt9enable_ifIXsr6__and_ISt6__not_ISt15__is_tuple_likeIT_EESt21is_move_constructibleIS5_ESt18is_move_assignableIS5_EEE5valueEvE4typeERS5_SE_(ptr noundef nonnull align 8 dereferenceable(8) %6, ptr noundef nonnull align 8 dereferenceable(8) %8) #3
  %9 = getelementptr inbounds nuw %"class.marisa::grimoire::io::Writer", ptr %5, i32 0, i32 1
  %10 = load ptr, ptr %4, align 8, !tbaa !3
  %11 = getelementptr inbounds nuw %"class.marisa::grimoire::io::Writer", ptr %10, i32 0, i32 1
  call void @_ZSt4swapIiENSt9enable_ifIXsr6__and_ISt6__not_ISt15__is_tuple_likeIT_EESt21is_move_constructibleIS3_ESt18is_move_assignableIS3_EEE5valueEvE4typeERS3_SC_(ptr noundef nonnull align 4 dereferenceable(4) %9, ptr noundef nonnull align 4 dereferenceable(4) %11) #3
  %12 = getelementptr inbounds nuw %"class.marisa::grimoire::io::Writer", ptr %5, i32 0, i32 3
  %13 = load ptr, ptr %4, align 8, !tbaa !3
  %14 = getelementptr inbounds nuw %"class.marisa::grimoire::io::Writer", ptr %13, i32 0, i32 3
  call void @_ZSt4swapIPSoENSt9enable_ifIXsr6__and_ISt6__not_ISt15__is_tuple_likeIT_EESt21is_move_constructibleIS4_ESt18is_move_assignableIS4_EEE5valueEvE4typeERS4_SD_(ptr noundef nonnull align 8 dereferenceable(8) %12, ptr noundef nonnull align 8 dereferenceable(8) %14) #3
  %15 = getelementptr inbounds nuw %"class.marisa::grimoire::io::Writer", ptr %5, i32 0, i32 4
  %16 = load ptr, ptr %4, align 8, !tbaa !3
  %17 = getelementptr inbounds nuw %"class.marisa::grimoire::io::Writer", ptr %16, i32 0, i32 4
  call void @_ZSt4swapIbENSt9enable_ifIXsr6__and_ISt6__not_ISt15__is_tuple_likeIT_EESt21is_move_constructibleIS3_ESt18is_move_assignableIS3_EEE5valueEvE4typeERS3_SC_(ptr noundef nonnull align 1 dereferenceable(1) %15, ptr noundef nonnull align 1 dereferenceable(1) %17) #3
  ret void
}

; Function Attrs: mustprogress nounwind uwtable
define void @_ZN6marisa8grimoire2io6Writer5open_EP8_IO_FILE(ptr noundef nonnull align 8 dereferenceable(25) %0, ptr noundef %1) #4 align 2 {
  %3 = alloca ptr, align 8
  %4 = alloca ptr, align 8
  store ptr %0, ptr %3, align 8, !tbaa !3
  store ptr %1, ptr %4, align 8, !tbaa !34
  %5 = load ptr, ptr %3, align 8
  %6 = load ptr, ptr %4, align 8, !tbaa !34
  %7 = getelementptr inbounds nuw %"class.marisa::grimoire::io::Writer", ptr %5, i32 0, i32 0
  store ptr %6, ptr %7, align 8, !tbaa !8
  ret void
}

; Function Attrs: mustprogress nounwind uwtable
define linkonce_odr void @_ZN6marisa9ExceptionC2EPKci18marisa_error_code_S2_(ptr noundef nonnull align 8 dereferenceable(32) %0, ptr noundef %1, i32 noundef %2, i32 noundef %3, ptr noundef %4) unnamed_addr #4 comdat align 2 {
  %6 = alloca ptr, align 8
  %7 = alloca ptr, align 8
  %8 = alloca i32, align 4
  %9 = alloca i32, align 4
  %10 = alloca ptr, align 8
  store ptr %0, ptr %6, align 8, !tbaa !21
  store ptr %1, ptr %7, align 8, !tbaa !19
  store i32 %2, ptr %8, align 4, !tbaa !23
  store i32 %3, ptr %9, align 4, !tbaa !24
  store ptr %4, ptr %10, align 8, !tbaa !19
  %11 = load ptr, ptr %6, align 8
  call void @_ZNSt9exceptionC2Ev(ptr noundef nonnull align 8 dereferenceable(8) %11) #3
  store ptr getelementptr inbounds inrange(-16, 24) ({ [5 x ptr] }, ptr @_ZTVN6marisa9ExceptionE, i32 0, i32 0, i32 2), ptr %11, align 8, !tbaa !26
  %12 = getelementptr inbounds nuw %"class.marisa::Exception", ptr %11, i32 0, i32 1
  %13 = load ptr, ptr %7, align 8, !tbaa !19
  store ptr %13, ptr %12, align 8, !tbaa !28
  %14 = getelementptr inbounds nuw %"class.marisa::Exception", ptr %11, i32 0, i32 2
  %15 = load i32, ptr %8, align 4, !tbaa !23
  store i32 %15, ptr %14, align 8, !tbaa !31
  %16 = getelementptr inbounds nuw %"class.marisa::Exception", ptr %11, i32 0, i32 3
  %17 = load i32, ptr %9, align 4, !tbaa !24
  store i32 %17, ptr %16, align 4, !tbaa !32
  %18 = getelementptr inbounds nuw %"class.marisa::Exception", ptr %11, i32 0, i32 4
  %19 = load ptr, ptr %10, align 8, !tbaa !19
  store ptr %19, ptr %18, align 8, !tbaa !33
  ret void
}

; Function Attrs: mustprogress uwtable
define void @_ZN6marisa8grimoire2io6Writer4openEP8_IO_FILE(ptr noundef nonnull align 8 dereferenceable(25) %0, ptr noundef %1) #6 align 2 personality ptr @__gxx_personality_v0 {
  %3 = alloca ptr, align 8
  %4 = alloca ptr, align 8
  %5 = alloca ptr, align 8
  %6 = alloca i1, align 1
  %7 = alloca ptr, align 8
  %8 = alloca i32, align 4
  %9 = alloca %"class.marisa::grimoire::io::Writer", align 8
  store ptr %0, ptr %3, align 8, !tbaa !3
  store ptr %1, ptr %4, align 8, !tbaa !34
  %10 = load ptr, ptr %3, align 8
  %11 = load ptr, ptr %4, align 8, !tbaa !34
  %12 = icmp eq ptr %11, null
  store i1 false, ptr %6, align 1
  br i1 %12, label %13, label %17

13:                                               ; preds = %2
  %14 = call ptr @__cxa_allocate_exception(i64 32) #3
  store ptr %14, ptr %5, align 8
  store i1 true, ptr %6, align 1
  invoke void @_ZN6marisa9ExceptionC2EPKci18marisa_error_code_S2_(ptr noundef nonnull align 8 dereferenceable(32) %14, ptr noundef @.str, i32 noundef 35, i32 noundef 2, ptr noundef @.str.2)
          to label %15 unwind label %21

15:                                               ; preds = %13
  call void @__cxa_throw(ptr %14, ptr @_ZTIN6marisa9ExceptionE, ptr @_ZNSt9exceptionD2Ev) #13
  unreachable

16:                                               ; No predecessors!
  br label %17

17:                                               ; preds = %16, %2
  call void @llvm.lifetime.start.p0(i64 32, ptr %9) #3
  call void @_ZN6marisa8grimoire2io6WriterC1Ev(ptr noundef nonnull align 8 dereferenceable(25) %9)
  %18 = load ptr, ptr %4, align 8, !tbaa !34
  invoke void @_ZN6marisa8grimoire2io6Writer5open_EP8_IO_FILE(ptr noundef nonnull align 8 dereferenceable(25) %9, ptr noundef %18)
          to label %19 unwind label %29

19:                                               ; preds = %17
  invoke void @_ZN6marisa8grimoire2io6Writer4swapERS2_(ptr noundef nonnull align 8 dereferenceable(25) %10, ptr noundef nonnull align 8 dereferenceable(25) %9)
          to label %20 unwind label %29

20:                                               ; preds = %19
  call void @_ZN6marisa8grimoire2io6WriterD1Ev(ptr noundef nonnull align 8 dereferenceable(25) %9) #3
  call void @llvm.lifetime.end.p0(i64 32, ptr %9) #3
  ret void

21:                                               ; preds = %13
  %22 = landingpad { ptr, i32 }
          cleanup
  %23 = extractvalue { ptr, i32 } %22, 0
  store ptr %23, ptr %7, align 8
  %24 = extractvalue { ptr, i32 } %22, 1
  store i32 %24, ptr %8, align 4
  %25 = load i1, ptr %6, align 1
  br i1 %25, label %26, label %28

26:                                               ; preds = %21
  %27 = load ptr, ptr %5, align 8
  call void @__cxa_free_exception(ptr %27) #3
  br label %28

28:                                               ; preds = %26, %21
  br label %33

29:                                               ; preds = %19, %17
  %30 = landingpad { ptr, i32 }
          cleanup
  %31 = extractvalue { ptr, i32 } %30, 0
  store ptr %31, ptr %7, align 8
  %32 = extractvalue { ptr, i32 } %30, 1
  store i32 %32, ptr %8, align 4
  call void @_ZN6marisa8grimoire2io6WriterD1Ev(ptr noundef nonnull align 8 dereferenceable(25) %9) #3
  call void @llvm.lifetime.end.p0(i64 32, ptr %9) #3
  br label %33

33:                                               ; preds = %29, %28
  %34 = load ptr, ptr %7, align 8
  %35 = load i32, ptr %8, align 4
  %36 = insertvalue { ptr, i32 } poison, ptr %34, 0
  %37 = insertvalue { ptr, i32 } %36, i32 %35, 1
  resume { ptr, i32 } %37
}